; Function Attrs: mustprogress nofree norecurse nosync nounwind willreturn memory(argmem: readwrite) uwtable
define void @_ZN8LightGBM12CreateBinaryERKNS_25PredictionEarlyStopConfigE(ptr dead_on_unwind noalias writable writeonly sret(%"struct.LightGBM::PredictionEarlyStopInstance") align 8 captures(none) initializes((0, 36)) %0, ptr noundef nonnull readonly align 8 captures(none) dereferenceable(16) %1) local_unnamed_addr #7 personality ptr @__gxx_personality_v0 {
  %3 = getelementptr inbounds nuw i8, ptr %1, i64 8
  %4 = load i64, ptr %3, align 8, !tbaa !15
  %5 = getelementptr inbounds nuw i8, ptr %0, i64 16
  %6 = getelementptr inbounds nuw i8, ptr %0, i64 24
  %7 = getelementptr inbounds nuw i8, ptr %0, i64 8
  store i64 0, ptr %7, align 8
  store i64 %4, ptr %0, align 8, !tbaa !18
  store ptr @"_ZNSt17_Function_handlerIFbPKdiEZN8LightGBM12CreateBinaryERKNS3_25PredictionEarlyStopConfigEE3$_0E9_M_invokeERKSt9_Any_dataOS1_Oi", ptr %6, align 8, !tbaa !4
  store ptr @"_ZNSt17_Function_handlerIFbPKdiEZN8LightGBM12CreateBinaryERKNS3_25PredictionEarlyStopConfigEE3$_0E10_M_managerERSt9_Any_dataRKS9_St18_Manager_operation", ptr %5, align 8, !tbaa !10
  %8 = getelementptr inbounds nuw i8, ptr %0, i64 32
  %9 = load i32, ptr %1, align 8, !tbaa !19
  store i32 %9, ptr %8, align 8, !tbaa !11
  ret void
}